target datalayout = "e-m:e-p270:32:32-p271:32:32-p272:64:64-i64:64-i128:128-f80:128-n8:16:32:64-S128"
target triple = "x86_64-pc-linux-gnu"

%struct.lexbor_shs_hash_t = type { i32, i32, i32 }
%struct.lxb_encoding_encode_t = type { ptr, ptr, i64, i64, ptr, i64, i32 }

@lxb_encoding_multi_hash_euc_kr = external constant [30109 x %struct.lexbor_shs_hash_t], align 16

; Function Attrs: nounwind uwtable
define internal ptr @lexbor_shs_hash_get_static(ptr noundef %0, i64 noundef %1, i32 noundef %2) #0 {
  %4 = alloca ptr, align 8
  %5 = alloca ptr, align 8
  %6 = alloca i64, align 8
  %7 = alloca i32, align 4
  %8 = alloca ptr, align 8
  store ptr %0, ptr %5, align 8
  store i64 %1, ptr %6, align 8
  store i32 %2, ptr %7, align 4
  %9 = load ptr, ptr %5, align 8
  %10 = load i32, ptr %7, align 4
  %11 = zext i32 %10 to i64
  %12 = load i64, ptr %6, align 8
  %13 = urem i64 %11, %12
  %14 = add i64 %13, 1
  %15 = getelementptr inbounds %struct.lexbor_shs_hash_t, ptr %9, i64 %14
  store ptr %15, ptr %8, align 8
  br label %16

16:                                               ; preds = %31, %3
  %17 = load ptr, ptr %8, align 8
  %18 = getelementptr inbounds %struct.lexbor_shs_hash_t, ptr %17, i32 0, i32 0
  %19 = load i32, ptr %18, align 4
  %20 = load i32, ptr %7, align 4
  %21 = icmp eq i32 %19, %20
  br i1 %21, label %22, label %24

22:                                               ; preds = %16
  %23 = load ptr, ptr %8, align 8
  store ptr %23, ptr %4, align 8
  br label %36

24:                                               ; preds = %16
  %25 = load ptr, ptr %5, align 8
  %26 = load ptr, ptr %8, align 8
  %27 = getelementptr inbounds %struct.lexbor_shs_hash_t, ptr %26, i32 0, i32 2
  %28 = load i32, ptr %27, align 4
  %29 = zext i32 %28 to i64
  %30 = getelementptr inbounds %struct.lexbor_shs_hash_t, ptr %25, i64 %29
  store ptr %30, ptr %8, align 8
  br label %31

31:                                               ; preds = %24
  %32 = load ptr, ptr %8, align 8
  %33 = load ptr, ptr %5, align 8
  %34 = icmp ne ptr %32, %33
  br i1 %34, label %16, label %35

35:                                               ; preds = %31
  store ptr null, ptr %4, align 8
  br label %36

36:                                               ; preds = %35, %22
  %37 = load ptr, ptr %4, align 8
  ret ptr %37
}

; Function Attrs: nounwind uwtable
define hidden i32 @lxb_encoding_encode_euc_kr(ptr noundef %0, ptr noundef %1, ptr noundef %2) #0 {
  %4 = alloca i32, align 4
  %5 = alloca ptr, align 8
  %6 = alloca ptr, align 8
  %7 = alloca ptr, align 8
  %8 = alloca i32, align 4
  %9 = alloca ptr, align 8
  store ptr %0, ptr %5, align 8
  store ptr %1, ptr %6, align 8
  store ptr %2, ptr %7, align 8
  br label %10

10:                                               ; preds = %133, %3
  %11 = load ptr, ptr %6, align 8
  %12 = load ptr, ptr %11, align 8
  %13 = load ptr, ptr %7, align 8
  %14 = icmp ult ptr %12, %13
  br i1 %14, label %15, label %137

15:                                               ; preds = %10
  %16 = load ptr, ptr %6, align 8
  %17 = load ptr, ptr %16, align 8
  %18 = load i32, ptr %17, align 4
  store i32 %18, ptr %8, align 4
  %19 = load i32, ptr %8, align 4
  %20 = icmp ult i32 %19, 128
  br i1 %20, label %21, label %43

21:                                               ; preds = %15
  br label %22

22:                                               ; preds = %21
  %23 = load ptr, ptr %5, align 8
  %24 = getelementptr inbounds %struct.lxb_encoding_encode_t, ptr %23, i32 0, i32 3
  %25 = load i64, ptr %24, align 8
  %26 = load ptr, ptr %5, align 8
  %27 = getelementptr inbounds %struct.lxb_encoding_encode_t, ptr %26, i32 0, i32 2
  %28 = load i64, ptr %27, align 8
  %29 = icmp eq i64 %25, %28
  br i1 %29, label %30, label %31

30:                                               ; preds = %22
  store i32 15, ptr %4, align 4
  br label %138

31:                                               ; preds = %22
  %32 = load i32, ptr %8, align 4
  %33 = trunc i32 %32 to i8
  %34 = load ptr, ptr %5, align 8
  %35 = getelementptr inbounds %struct.lxb_encoding_encode_t, ptr %34, i32 0, i32 1
  %36 = load ptr, ptr %35, align 8
  %37 = load ptr, ptr %5, align 8
  %38 = getelementptr inbounds %struct.lxb_encoding_encode_t, ptr %37, i32 0, i32 3
  %39 = load i64, ptr %38, align 8
  %40 = add i64 %39, 1
  store i64 %40, ptr %38, align 8
  %41 = getelementptr inbounds i8, ptr %36, i64 %39
  store i8 %33, ptr %41, align 1
  br label %42

42:                                               ; preds = %31
  br label %133

43:                                               ; preds = %15
  %44 = load i32, ptr %8, align 4
  %45 = call ptr @lexbor_shs_hash_get_static(ptr noundef @lxb_encoding_multi_hash_euc_kr, i64 noundef 28041, i32 noundef %44)
  store ptr %45, ptr %9, align 8
  %46 = load ptr, ptr %9, align 8
  %47 = icmp eq ptr %46, null
  br i1 %47, label %48, label %90

48:                                               ; preds = %43
  br label %49

49:                                               ; preds = %48
  %50 = load ptr, ptr %5, align 8
  %51 = getelementptr inbounds %struct.lxb_encoding_encode_t, ptr %50, i32 0, i32 4
  %52 = load ptr, ptr %51, align 8
  %53 = icmp eq ptr %52, null
  br i1 %53, label %54, label %55

54:                                               ; preds = %49
  store i32 1, ptr %4, align 4
  br label %138

55:                                               ; preds = %49
  %56 = load ptr, ptr %5, align 8
  %57 = getelementptr inbounds %struct.lxb_encoding_encode_t, ptr %56, i32 0, i32 3
  %58 = load i64, ptr %57, align 8
  %59 = load ptr, ptr %5, align 8
  %60 = getelementptr inbounds %struct.lxb_encoding_encode_t, ptr %59, i32 0, i32 5
  %61 = load i64, ptr %60, align 8
  %62 = add i64 %58, %61
  %63 = load ptr, ptr %5, align 8
  %64 = getelementptr inbounds %struct.lxb_encoding_encode_t, ptr %63, i32 0, i32 2
  %65 = load i64, ptr %64, align 8
  %66 = icmp ugt i64 %62, %65
  br i1 %66, label %67, label %68

67:                                               ; preds = %55
  store i32 15, ptr %4, align 4
  br label %138

68:                                               ; preds = %55
  %69 = load ptr, ptr %5, align 8
  %70 = getelementptr inbounds %struct.lxb_encoding_encode_t, ptr %69, i32 0, i32 1
  %71 = load ptr, ptr %70, align 8
  %72 = load ptr, ptr %5, align 8
  %73 = getelementptr inbounds %struct.lxb_encoding_encode_t, ptr %72, i32 0, i32 3
  %74 = load i64, ptr %73, align 8
  %75 = getelementptr inbounds i8, ptr %71, i64 %74
  %76 = load ptr, ptr %5, align 8
  %77 = getelementptr inbounds %struct.lxb_encoding_encode_t, ptr %76, i32 0, i32 4
  %78 = load ptr, ptr %77, align 8
  %79 = load ptr, ptr %5, align 8
  %80 = getelementptr inbounds %struct.lxb_encoding_encode_t, ptr %79, i32 0, i32 5
  %81 = load i64, ptr %80, align 8
  call void @llvm.memcpy.p0.p0.i64(ptr align 1 %75, ptr align 1 %78, i64 %81, i1 false)
  %82 = load ptr, ptr %5, align 8
  %83 = getelementptr inbounds %struct.lxb_encoding_encode_t, ptr %82, i32 0, i32 5
  %84 = load i64, ptr %83, align 8
  %85 = load ptr, ptr %5, align 8
  %86 = getelementptr inbounds %struct.lxb_encoding_encode_t, ptr %85, i32 0, i32 3
  %87 = load i64, ptr %86, align 8
  %88 = add i64 %87, %84
  store i64 %88, ptr %86, align 8
  br label %89

89:                                               ; preds = %68
  br label %133

90:                                               ; preds = %43
  %91 = load ptr, ptr %5, align 8
  %92 = getelementptr inbounds %struct.lxb_encoding_encode_t, ptr %91, i32 0, i32 3
  %93 = load i64, ptr %92, align 8
  %94 = add i64 %93, 2
  %95 = load ptr, ptr %5, align 8
  %96 = getelementptr inbounds %struct.lxb_encoding_encode_t, ptr %95, i32 0, i32 2
  %97 = load i64, ptr %96, align 8
  %98 = icmp ugt i64 %94, %97
  br i1 %98, label %99, label %100

99:                                               ; preds = %90
  store i32 15, ptr %4, align 4
  br label %138

100:                                              ; preds = %90
  %101 = load ptr, ptr %9, align 8
  %102 = getelementptr inbounds %struct.lexbor_shs_hash_t, ptr %101, i32 0, i32 1
  %103 = load i32, ptr %102, align 4
  %104 = zext i32 %103 to i64
  %105 = trunc i64 %104 to i32
  %106 = udiv i32 %105, 190
  %107 = add i32 %106, 129
  %108 = trunc i32 %107 to i8
  %109 = load ptr, ptr %5, align 8
  %110 = getelementptr inbounds %struct.lxb_encoding_encode_t, ptr %109, i32 0, i32 1
  %111 = load ptr, ptr %110, align 8
  %112 = load ptr, ptr %5, align 8
  %113 = getelementptr inbounds %struct.lxb_encoding_encode_t, ptr %112, i32 0, i32 3
  %114 = load i64, ptr %113, align 8
  %115 = add i64 %114, 1
  store i64 %115, ptr %113, align 8
  %116 = getelementptr inbounds i8, ptr %111, i64 %114
  store i8 %108, ptr %116, align 1
  %117 = load ptr, ptr %9, align 8
  %118 = getelementptr inbounds %struct.lexbor_shs_hash_t, ptr %117, i32 0, i32 1
  %119 = load i32, ptr %118, align 4
  %120 = zext i32 %119 to i64
  %121 = trunc i64 %120 to i32
  %122 = urem i32 %121, 190
  %123 = add i32 %122, 65
  %124 = trunc i32 %123 to i8
  %125 = load ptr, ptr %5, align 8
  %126 = getelementptr inbounds %struct.lxb_encoding_encode_t, ptr %125, i32 0, i32 1
  %127 = load ptr, ptr %126, align 8
  %128 = load ptr, ptr %5, align 8
  %129 = getelementptr inbounds %struct.lxb_encoding_encode_t, ptr %128, i32 0, i32 3
  %130 = load i64, ptr %129, align 8
  %131 = add i64 %130, 1
  store i64 %131, ptr %129, align 8
  %132 = getelementptr inbounds i8, ptr %127, i64 %130
  store i8 %124, ptr %132, align 1
  br label %133

133:                                              ; preds = %100, %89, %42
  %134 = load ptr, ptr %6, align 8
  %135 = load ptr, ptr %134, align 8
  %136 = getelementptr inbounds i32, ptr %135, i32 1
  store ptr %136, ptr %134, align 8
  br label %10

137:                                              ; preds = %10
  store i32 0, ptr %4, align 4
  br label %138

138:                                              ; preds = %137, %99, %67, %54, %30
  %139 = load i32, ptr %4, align 4
  ret i32 %139
}